; Function Attrs: nounwind uwtable
define noalias ptr @av_hwdevice_hwconfig_alloc(ptr noundef readonly captures(none) %0) local_unnamed_addr #5 {
  %2 = getelementptr inbounds nuw i8, ptr %0, i64 8
  %3 = load ptr, ptr %2, align 8, !tbaa !32
  %4 = getelementptr inbounds nuw i8, ptr %3, i64 40
  %5 = load ptr, ptr %4, align 8, !tbaa !27
  %6 = getelementptr inbounds nuw i8, ptr %5, i64 32
  %7 = load i64, ptr %6, align 8, !tbaa !94
  %8 = icmp eq i64 %7, 0
  br i1 %8, label %11, label %9

9:                                                ; preds = %1
  %10 = tail call noalias ptr @av_mallocz(i64 noundef %7) #11
  br label %11

11:                                               ; preds = %1, %9
  %.0 = phi ptr [ %10, %9 ], [ null, %1 ]
  ret ptr %.0
}